ccopy_reg
_reconstructor
p0
(cPhysicsTools.HeppyCore.statistics.average
Average
p1
c__builtin__
object
p2
Ntp3
Rp4
(dp5
S'sumw'
p6
F3750.0
sS'sumwx'
p7
F3418.7595637287736
sS'sumwx2'
p8
F3803.7550428856616
sS'name'
p9
S'puWeight'
p10
sb.