ccopy_reg
_reconstructor
p0
(cPhysicsTools.HeppyCore.statistics.counter
Counter
p1
c__builtin__
list
p2
(lp3
(lp4
S'All Events'
p5
aI3750
aa(lp6
S'Sum Weights'
p7
aF3750.0
aatp8
Rp9
(dp10
S'name'
p11
S'SkimReport'
p12
sS'dico'
p13
(dp14
g5
I0
sg7
I1
ssb.