ccopy_reg
_reconstructor
p0
(cPhysicsTools.HeppyCore.statistics.average
Average
p1
c__builtin__
object
p2
Ntp3
Rp4
(dp5
S'sumw'
p6
F1250.0
sS'sumwx'
p7
F1155.29308564962
sS'sumwx2'
p8
F1295.031323385844
sS'name'
p9
S'puWeight'
p10
sb.