(dp1
S'T1tttt_mGo_1325to1350_mLSP_1to1125'
p2
(lp3
F1
aF0.86449686808749837
aF1.1730220000015785
aF0.86353242357997217
aF0.74651466355509999
aF1.0129519701958241
aF1.1715847147414165
aF1.0128414729424868
aF1.3742796925861189
aF1
asS'T1tttt_mGo_1950_mLSP_700to950'
p4
(lp5
F1
aF0.85718896397042044
aF1.1822688236543624
aF0.86810695291630346
aF0.74412783500034119
aF1.0263413053182862
aF1.1644253567379592
aF0.99813859107354896
aF1.3766551826681719
aF1
asS'T1tttt_mGo_1050_mLSP_50to775'
p6
(lp7
F1
aF0.8685117875358519
aF1.1675184204896563
aF0.86033830114691623
aF0.7472061601276111
aF1.0044723066812196
aF1.1766513601971655
aF1.0219479628565642
aF1.3737438755115456
aF1
asS'T1tttt_mGo_1350to1375_mLSP_50to1025'
p8
(lp9
F1
aF0.86439227906390437
aF1.1731613966563874
aF0.86362648306160927
aF0.74650570046293441
aF1.0131826162590227
aF1.1714351495972735
aF1.0125895761763311
aF1.3742676632345039
aF1
asS'T1tttt_mGo_1250to1275_mLSP_700to1050'
p10
(lp11
F1
aF0.8655976867762204
aF1.1715632669007481
aF0.86270829818041539
aF0.74675148988736328
aF1.0107273920605915
aF1.1728921401697019
aF1.0152635277236592
aF1.3741014256371171
aF1
asS'T1tttt_mGo_1000_mLSP_1to700'
p12
(lp13
F1
aF0.86921527058454917
aF1.1665072478441567
aF0.85968928938822675
aF0.74724713368279128
aF1.002845465728426
aF1.1776919725897261
aF1.0236804886639976
aF1.3737675921707004
aF1
asS'T1tttt_mGo_600to625_mLSP_250to375'
p14
(lp15
F1
aF0.87812448698626588
aF1.1529701834020021
aF0.85271892936722915
aF0.7487839374032722
aF0.98317332510931721
aF1.189029935203755
aF1.0441317979506781
aF1.3708933700362416
aF1
asS'T1tttt_mGo_800to825_mLSP_1to575'
p16
(lp17
F1
aF0.87284002578990905
aF1.1611090350583206
aF0.85664961225303948
aF0.74770935697538177
aF0.99467639387168472
aF1.1826049681724393
aF1.0322390313863006
aF1.3731126417729977
aF1
asS'T1tttt_mGo_1500to1525_mLSP_50to1125'
p18
(lp19
F1
aF0.8625128719773677
aF1.1755837700034792
aF0.86492947852408675
aF0.74600714601088314
aF1.016805378705679
aF1.1693657301575782
aF1.0086018683212072
aF1.3746743352563291
aF1
asS'T1tttt_mGo_1150to1175_mLSP_750to925'
p20
(lp21
F1
aF0.86683154248444194
aF1.1698817295061343
aF0.86169689273508554
aF0.74693867813252901
aF1.0080943407723402
aF1.1744894656872413
aF1.0180961665822137
aF1.3739965480180403
aF1
asS'T1tttt_mGo_750to775_mLSP_350to525'
p22
(lp23
F1
aF0.87375751029475923
aF1.1596975431234395
aF0.85586422550576058
aF0.74780886549221415
aF0.99255674148836859
aF1.183878302884491
aF1.0344370096038582
aF1.3729195506516705
aF1
asS'T1tttt_mGo_1150_mLSP_1to800'
p24
(lp25
F1
aF0.86705503952811647
aF1.169563146398227
aF0.86154135560558498
aF0.74699645166193007
aF1.0076378201461165
aF1.1747357499923878
aF1.0185721341778182
aF1.373910560353153
aF1
asS'T1tttt_mGo_950to975_mLSP_350to725'
p26
(lp27
F1
aF0.86995028182671619
aF1.1654284886406923
aF0.85904514343586702
aF0.74731846584154193
aF1.001167592334109
aF1.1787294091297573
aF1.0254489512577909
aF1.3737057509569868
aF1
asS'T1tttt_mGo_1000to1050_mLSP_1to800'
p28
(lp29
F1
aF0.86892185761779839
aF1.1669345394288366
aF0.85995229386782235
aF0.7472235272963661
aF1.0035195473578415
aF1.1772698051361969
aF1.0229679203251001
aF1.3737784540180298
aF1
asS'T1tttt_mGo_1525to1550_mLSP_1to1300'
p30
(lp31
F1
aF0.86200381887901845
aF1.176222691118
aF0.86527466547361931
aF0.74586457168798681
aF1.0177637587222212
aF1.1688209101443012
aF1.0075366711263671
aF1.3747810835917864
aF1
asS'T1tttt_mGo_1175_mLSP_950'
p32
(lp33
F1
aF0.86667113020396203
aF1.1701028872236863
aF0.86181384092132585
aF0.74690151199291299
aF1.0084222217303567
aF1.1743043857619411
aF1.0177478067236452
aF1.3740389871929384
aF1
asS'T1tttt_mGo_1225to1250_mLSP_1to1025'
p34
(lp35
F1
aF0.86580409517433976
aF1.1712828172484211
aF0.86257489827302902
aF0.74681403903841947
aF1.0103292347718125
aF1.1731029777333539
aF1.0156882003801697
aF1.3740193967753374
aF1
asS'T1tttt_mGo_900to950_mLSP_200to700'
p36
(lp37
F1
aF0.87040885092656761
aF1.164756794935345
aF0.8586143372785171
aF0.74733724466096663
aF1.0000890610284243
aF1.1794257443489287
aF1.026595900956734
aF1.3737245952680535
aF1
asS'T1tttt_mGo_600_mLSP_250to325'
p38
(lp39
F1
aF0.87857729753580482
aF1.1522734164341877
aF0.85242618695170969
aF0.74891284863601071
aF0.98224185321930491
aF1.1895137476171918
aF1.0450953088712445
aF1.3706223455086362
aF1
asS'T1tttt_mGo_1300to1325_mLSP_700to1100'
p40
(lp41
F1
aF0.86496856892700191
aF1.1723943846318148
aF0.86322289594681156
aF0.74665420171536567
aF1.0120471789230969
aF1.172076672790231
aF1.0138197435671192
aF1.3741210429828061
aF1
asS'T1tttt_mGo_650to675_mLSP_250to425'
p42
(lp43
F1
aF0.87656755242098261
aF1.1553731761065829
aF0.85378462576274039
aF0.74839066670600252
aF0.9864533956174425
aF1.1872737580309283
aF1.0407407101123034
aF1.3717221554005055
aF1
asS'T1tttt_mGo_850to875_mLSP_450to625'
p44
(lp45
F1
aF0.87156785685190419
aF1.1630364816747205
aF0.85767061333885497
aF0.74750950162962215
aF0.99751493632178456
aF1.1809536433331664
aF1.0292951688297431
aF1.3734716379996388
aF1
asS'T1tttt_mGo_1450to1475_mLSP_50to1075'
p46
(lp47
F1
aF0.86314889677994522
aF1.1747608103178215
aF0.8645112411557524
aF0.74619611443774103
aF1.0156024524399463
aF1.1700281219511648
aF1.0099176216465071
aF1.3744897726983303
aF1
asS'T1tttt_mGo_1800to1850_mLSP_1to1450'
p48
(lp49
F1
aF0.85889246746048753
aF1.1801482565933339
aF0.86718167462551143
aF0.74481145612134991
aF1.0234092331476197
aF1.1658530999061667
aF1.0013491823397342
aF1.3758697734859169
aF1
asS'T1tttt_mGo_1750_mLSP_50to1450'
p50
(lp51
F1
aF0.85957482767603632
aF1.1792761113506247
aF0.86679897549276363
aF0.7450740428825755
aF1.0222019164635023
aF1.1664422418602713
aF1.0026513980526459
aF1.3755472925845305
aF1
asS'T1tttt_mGo_1200_mLSP_1to825'
p52
(lp53
F1
aF0.86641028321979274
aF1.170455303201146
aF0.86209405454903032
aF0.74692010853332702
aF1.0090529368008496
aF1.1738617491827419
aF1.0170570366970375
aF1.3739362853246777
aF1
asS'T1tttt_mGo_1425to1450_mLSP_1to1200'
p54
(lp55
F1
aF0.86325483477408926
aF1.1746338909621026
aF0.86442960299844696
aF0.74621714252835436
aF1.0153969597343102
aF1.1701577128184801
aF1.0101535767664143
aF1.3744932895239013
aF1
asS'T1tttt_mGo_1900to1950_mLSP_0to1450'
p56
(lp57
F1
aF0.85754436737274564
aF1.1818107998302867
aF0.86796625571364316
aF0.74431567165509915
aF1.0257774485006663
aF1.1646432702619991
aF0.99873935655789181
aF1.3763793418425885
aF1
asS'T1tttt_mGo_1100_mLSP_1to775'
p58
(lp59
F1
aF0.86773973767061829
aF1.1686103119392421
aF0.86095721612654785
aF0.74707924950730931
aF1.0061346014930719
aF1.1756636706735053
aF1.0201820312994352
aF1.3738750679076754
aF1
asS'T1tttt_mGo_1400_mLSP_1to1175'
p60
(lp61
F1
aF0.86381605171044129
aF1.1739098588607189
aF0.864047468539759
aF0.74637195373825516
aF1.0143228394217687
aF1.1707650935375369
aF1.0113353427035772
aF1.374358476378168
aF1
asS'T1tttt_mGo_775_mLSP_475to550'
p62
(lp63
F1
aF0.87332037848682587
aF1.1603760071272538
aF0.8561797018944528
aF0.74771033357421302
aF0.99350336648359638
aF1.1833663849338312
aF1.0334722841523527
aF1.3731289699415725
aF1
asS'T1tttt_mGo_825to850_mLSP_200to600'
p64
(lp65
F1
aF0.87212912639590201
aF1.1621879586599981
aF0.85720775733012822
aF0.74758721401700989
aF0.99624924493927403
aF1.1817022450158252
aF1.0306108989774982
aF1.3733395885704724
aF1
asS'T1tttt_mGo_1400to1425_mLSP_50to1100'
p66
(lp67
F1
aF0.86373847665960801
aF1.1739964502117424
aF0.86412355470972757
aF0.74637069093726216
aF1.0144869032705868
aF1.1706440807525564
aF1.0111399152968759
aF1.3743179213054435
aF1
asS'T1tttt_mGo_1475to1500_mLSP_1to1250'
p68
(lp69
F1
aF0.8626555282669679
aF1.1753952331645994
aF0.86483426606611413
aF0.74604838883396818
aF1.016530380225857
aF1.1695163671661557
aF1.0088986543720297
aF1.3746309324685164
aF1
asS'T1tttt_mGo_975_mLSP_600to750'
p70
(lp71
F1
aF0.86956701339543252
aF1.1659802812472768
aF0.85935094005541734
aF0.74725520411799751
aF1.0019980661484782
aF1.1782362745518662
aF1.0245682251409962
aF1.3737813703923569
aF1
asS'T1tttt_mGo_625to650_mLSP_200to400'
p72
(lp73
F1
aF0.87698418122322452
aF1.1547275256453664
aF0.8534786709783001
aF0.74847795474002787
aF0.98554899970006682
aF1.1877767891594586
aF1.0416767265945945
aF1.3715361872797032
aF1
asS'T1tttt_mGo_1050to1075_mLSP_650to850'
p74
(lp75
F1
aF0.86819490094228946
aF1.1679687028211876
aF0.86058349320440131
aF0.74714660207117156
aF1.0051457950254028
aF1.1762595963665765
aF1.0212346465107724
aF1.3738166031159236
aF1
asS'T1tttt_mGo_700_mLSP_1to450'
p76
(lp77
F1
aF0.87525524261238852
aF1.1573961471371681
aF0.85471094403069403
aF0.74808118145048208
aF0.98925244471631513
aF1.1857562199290796
aF1.0378540543476378
aF1.3723680889126071
aF1
asS'T1tttt_mGo_700to750_mLSP_200to500'
p78
(lp79
F1
aF0.87461386685915554
aF1.1583849537670643
aF0.85522925813173134
aF0.74798627940099449
aF0.99069805036090031
aF1.1849110123749742
aF1.0363543417558991
aF1.3725614441574514
aF1
asS'T1tttt_mGo_875to900_mLSP_1to650'
p80
(lp81
F1
aF0.8709457196212852
aF1.1639650899801368
aF0.8581960306994767
aF0.74743385067166845
aF0.99892242674422471
aF1.1801030094149096
aF1.0278190354548298
aF1.3735790590080412
aF1
asS'T1tttt_mGo_1300_mLSP_1to1075'
p82
(lp83
F1
aF0.86508354208544425
aF1.1722468955258665
aF0.86311599678684148
aF0.74666086980832436
aF1.0117947275777726
aF1.1722464120544414
aF1.0141015019352231
aF1.3741468638829299
aF1
asS'T1tttt_mGo_1600to1650_mLSP_1to1350'
p84
(lp85
F1
aF0.86128716107880521
aF1.1771361701839731
aF0.86573017464678415
aF0.74563708233748172
aF1.0190899213834923
aF1.1681049424563528
aF1.0060818715301532
aF1.3750067236827044
aF1
asS'T1tttt_mGo_625_mLSP_275to375'
p86
(lp87
F1
aF0.87763750934867302
aF1.1537206485753817
aF0.8530399813710583
aF0.74865037582979754
aF0.98418375499538779
aF1.1884993795114811
aF1.0430872051347932
aF1.3711734735170105
aF1
asS'T1tttt_mGo_1375_mLSP_950to1150'
p88
(lp89
F1
aF0.86412355968175125
aF1.1735071508132708
aF0.86382335849088543
aF0.74644386622725745
aF1.0137120565839488
aF1.1711218396962346
aF1.0120038570763539
aF1.3743053469913584
aF1
asS'T1tttt_mGo_1275_mLSP_900to975'
p90
(lp91
F1
aF0.8653627087895911
aF1.1718851863238595
aF0.86287175277987727
aF0.74669031727998958
aF1.0111965263444023
aF1.1726337025013804
aF1.0147641196520072
aF1.3741763625859236
aF1
asS'T1tttt_mGo_1550to1575_mLSP_500to1175'
p92
(lp93
F1
aF0.86191719458893123
aF1.1763181243399665
aF0.86533977934088768
aF0.74584580920372023
aF1.0179228249411663
aF1.1687183440874347
aF1.0073469031532993
aF1.3747721563464137
aF1
asS'T1tttt_mGo_1700to1750_mLSP_1to1450'
p94
(lp95
F1
aF0.86003327930869411
aF1.1787111243696544
aF0.866510112281486
aF0.74522279616176335
aF1.0213720013933023
aF1.1668889456968132
aF1.0035706470083974
aF1.375414331032327
aF1
asS'T1tttt_mGo_1200to1225_mLSP_800to1000'
p96
(lp97
F1
aF0.8662157786154957
aF1.1707250545791332
aF0.86222740125148256
aF0.746867946978788
aF1.0094415783055641
aF1.173651360232107
aF1.016646455858939
aF1.3740066590084554
aF1
asS'T1tttt_mGo_1850to1900_mLSP_1to1450'
p98
(lp99
F1
aF0.85822412746970078
aF1.1809810437791721
aF0.86756883543226448
aF0.74456440167915949
aF1.0245882336256358
aF1.16525733590865
aF1.0000583341691043
aF1.3761376907992886
aF1
asS'T1tttt_mGo_675_mLSP_325to450'
p100
(lp101
F1
aF0.87597775574325487
aF1.1562789692047317
aF0.85417636879422087
aF0.74823043409720325
aF0.98767942917024387
aF1.1866307337433897
aF1.0394768859270187
aF1.3720545752112328
aF1
asS'T1tttt_mGo_1100to1125_mLSP_700to900'
p102
(lp103
F1
aF0.86754337996461639
aF1.1688838415621423
aF0.86114664401525709
aF0.7470746554142218
aF1.0065913448059649
aF1.1753623710895864
aF1.0196895876079388
aF1.3738447479487146
aF1
asS'T1tttt_mGo_1650to1700_mLSP_1to1400'
p104
(lp105
F1
aF0.86069656502153058
aF1.1778659434573351
aF0.86612792855581433
aF0.74546836142003381
aF1.0201898430803116
aF1.1674830135217473
aF1.004856317649381
aF1.3751272379209696
aF1
asS'T1tttt_mGo_600_mLSP_1to225'
p106
(lp107
F1
aF0.87858012403619101
aF1.1522693977893543
aF0.85242483524478274
aF0.74891399344805998
aF0.98223698061194786
aF1.18951598214377
aF1.045100756748204
aF1.3706199652477877
aF1
as.