ccopy_reg
_reconstructor
p0
(cPhysicsTools.HeppyCore.statistics.counter
Counter
p1
c__builtin__
list
p2
(lp3
(lp4
S'all events'
p5
aI1250
aa(lp6
S'accepted events'
p7
aI1250
aatp8
Rp9
(dp10
S'name'
p11
S'events'
p12
sS'dico'
p13
(dp14
g5
I0
sg7
I1
ssb.