ccopy_reg
_reconstructor
p0
(cPhysicsTools.HeppyCore.statistics.average
Average
p1
c__builtin__
object
p2
Ntp3
Rp4
(dp5
S'sumw'
p6
F3750.0
sS'sumwx'
p7
F3401.179959996907
sS'sumwx2'
p8
F3778.170988106867
sS'name'
p9
S'puWeight'
p10
sb.