(dp0
S'WJets'
p1
(dp2
(I670
I-1
tp3
(dp4
(I0
F0.8
tp5
(dp6
S'c'
p7
F0.11968963240149681
sS'b'
p8
F0.5215867452604748
sS'other'
p9
F0.023763860237235687
ss(F1.6
F2.4
tp10
(dp11
g7
F0.08157099697885196
sg8
F0.36477987421383645
sg9
F0.022593320235756387
ss(F0.8
F1.6
tp12
(dp13
g7
F0.11035364294844482
sg8
F0.4544138929088278
sg9
F0.026141078838174275
sss(I210
I260
tp14
(dp15
(I0
F0.8
tp16
(dp17
g7
F0.16376042456406367
sg8
F0.6571167327034441
sg9
F0.014957978873782415
ss(F1.6
F2.4
tp18
(dp19
g7
F0.10781194768469424
sg8
F0.5239294710327456
sg9
F0.01698392412726172
ss(F0.8
F1.6
tp20
(dp21
g7
F0.1558729718485647
sg8
F0.6311590802440169
sg9
F0.014849140846976052
sss(I80
I100
tp22
(dp23
(I0
F0.8
tp24
(dp25
g7
F0.1292057363485935
sg8
F0.666443402545211
sg9
F0.007191947240541479
ss(F1.6
F2.4
tp26
(dp27
g7
F0.11846038863976084
sg8
F0.5673758865248227
sg9
F0.012038346691812038
ss(F0.8
F1.6
tp28
(dp29
g7
F0.12795941375422773
sg8
F0.6326234269119071
sg9
F0.009115902184922588
sss(I500
I670
tp30
(dp31
(I0
F0.8
tp32
(dp33
g7
F0.1443291980204732
sg8
F0.6078071182548794
sg9
F0.02071295567542664
ss(F1.6
F2.4
tp34
(dp35
g7
F0.08213256484149856
sg8
F0.412
sg9
F0.015141986357699193
ss(F0.8
F1.6
tp36
(dp37
g7
F0.12136096801245956
sg8
F0.55980271270037
sg9
F0.020400241525058226
sss(I400
I500
tp38
(dp39
(I0
F0.8
tp40
(dp41
g7
F0.1510777140597192
sg8
F0.6212253829321663
sg9
F0.02080414748739648
ss(F1.6
F2.4
tp42
(dp43
g7
F0.10024030209406111
sg8
F0.4468371467025572
sg9
F0.017087486541867813
ss(F0.8
F1.6
tp44
(dp45
g7
F0.13190711674908623
sg8
F0.5768243491015769
sg9
F0.020359936984326185
sss(I30
I40
tp46
(dp47
(I0
F0.8
tp48
(dp49
g7
F0.13787185354691076
sg8
F0.621664464993395
sg9
F0.01535038375959399
ss(F1.6
F2.4
tp50
(dp51
g7
F0.10577608747325885
sg8
F0.5022771633051398
sg9
F0.016788677403611518
ss(F0.8
F1.6
tp52
(dp53
g7
F0.14142020717609968
sg8
F0.5756521739130435
sg9
F0.015907901622187335
sss(I260
I320
tp54
(dp55
(I0
F0.8
tp56
(dp57
g7
F0.16322869955156952
sg8
F0.6437090041741205
sg9
F0.016654886589989076
ss(F1.6
F2.4
tp58
(dp59
g7
F0.11688790560471976
sg8
F0.47020725388601037
sg9
F0.017643034601951536
ss(F0.8
F1.6
tp60
(dp61
g7
F0.1506830601092896
sg8
F0.6062618595825426
sg9
F0.018215119893801146
sss(I70
I80
tp62
(dp63
(I0
F0.8
tp64
(dp65
g7
F0.12859884836852206
sg8
F0.6593714927048261
sg9
F0.00724604863910149
ss(F1.6
F2.4
tp66
(dp67
g7
F0.11138461538461539
sg8
F0.5691823899371069
sg9
F0.010668021336042673
ss(F0.8
F1.6
tp68
(dp69
g7
F0.1289482253337675
sg8
F0.6576955424726662
sg9
F0.007859303636040097
sss(I320
I400
tp70
(dp71
(I0
F0.8
tp72
(dp73
g7
F0.1534880337528188
sg8
F0.6294317629917435
sg9
F0.019288071513248534
ss(F1.6
F2.4
tp74
(dp75
g7
F0.10284391534391535
sg8
F0.4648711943793911
sg9
F0.01895532194480946
ss(F0.8
F1.6
tp76
(dp77
g7
F0.15120711562897077
sg8
F0.5845337376800607
sg9
F0.019288580757447174
sss(I50
I60
tp78
(dp79
(I0
F0.8
tp80
(dp81
g7
F0.12984702952685878
sg8
F0.6713495104299702
sg9
F0.0076297049847405905
ss(F1.6
F2.4
tp82
(dp83
g7
F0.10071639275179098
sg8
F0.5264765784114053
sg9
F0.012015093340394545
ss(F0.8
F1.6
tp84
(dp85
g7
F0.1291414752116082
sg8
F0.622737556561086
sg9
F0.009046611015696768
sss(I100
I120
tp86
(dp87
(I0
F0.8
tp88
(dp89
g7
F0.12803915377328703
sg8
F0.6614173228346457
sg9
F0.007022111086371966
ss(F1.6
F2.4
tp90
(dp91
g7
F0.10685302073940486
sg8
F0.5289672544080605
sg9
F0.009690978438545965
ss(F0.8
F1.6
tp92
(dp93
g7
F0.14518201284796575
sg8
F0.6407650926479378
sg9
F0.007657104587565577
sss(I160
I210
tp94
(dp95
(I0
F0.8
tp96
(dp97
g7
F0.17165749433473615
sg8
F0.6739567621920564
sg9
F0.013695467377501653
ss(F1.6
F2.4
tp98
(dp99
g7
F0.11578387010912962
sg8
F0.5109689213893968
sg9
F0.013934698678121245
ss(F0.8
F1.6
tp100
(dp101
g7
F0.14982778415614237
sg8
F0.6225362588322797
sg9
F0.014147048072887757
sss(I120
I160
tp102
(dp103
(I0
F0.8
tp104
(dp105
g7
F0.13711837171933583
sg8
F0.6698776360322832
sg9
F0.008973950026581606
ss(F1.6
F2.4
tp106
(dp107
g7
F0.12042310821806347
sg8
F0.5433006535947712
sg9
F0.01351147342995169
ss(F0.8
F1.6
tp108
(dp109
g7
F0.13230652695366746
sg8
F0.6245239908606245
sg9
F0.00946676970633694
sss(I60
I70
tp110
(dp111
(I0
F0.8
tp112
(dp113
g7
F0.11891087002765369
sg8
F0.6617721518987342
sg9
F0.006720892045671516
ss(F1.6
F2.4
tp114
(dp115
g7
F0.10675965665236052
sg8
F0.5752461322081576
sg9
F0.012325629814699146
ss(F0.8
F1.6
tp116
(dp117
g7
F0.11935303959843838
sg8
F0.6513249651324965
sg9
F0.008373885334584887
sss(I40
I50
tp118
(dp119
(I0
F0.8
tp120
(dp121
g7
F0.12019443216968625
sg8
F0.6392318244170097
sg9
F0.009415363292031591
ss(F1.6
F2.4
tp122
(dp123
g7
F0.11161731207289294
sg8
F0.5522514868309261
sg9
F0.013104963103729115
ss(F0.8
F1.6
tp124
(dp125
g7
F0.13795806388398982
sg8
F0.6121266161390995
sg9
F0.011789160648176245
ssssS'TTJets'
p126
(dp127
(I670
I-1
tp128
(dp129
(I0
F0.8
tp130
(dp131
g7
F0.15146740200906048
sg8
F0.4606000425562097
sg9
F0.028192781001769765
ss(F1.6
F2.4
tp132
(dp133
g7
F0.09169054441260745
sg8
F0.31299212598425197
sg9
F0.025180694800652832
ss(F0.8
F1.6
tp134
(dp135
g7
F0.1254948535233571
sg8
F0.4111356932153392
sg9
F0.028669092512956223
sss(I210
I260
tp136
(dp137
(I0
F0.8
tp138
(dp139
g7
F0.16841274711787138
sg8
F0.6821561938379088
sg9
F0.03306672667021233
ss(F1.6
F2.4
tp140
(dp141
g7
F0.13290420295342673
sg8
F0.4952158693115519
sg9
F0.018006328393544126
ss(F0.8
F1.6
tp142
(dp143
g7
F0.15705322809147945
sg8
F0.6152361663099969
sg9
F0.026348873076972926
sss(I80
I100
tp144
(dp145
(I0
F0.8
tp146
(dp147
g7
F0.14209657310375037
sg8
F0.687942177828932
sg9
F0.02484468244145723
ss(F1.6
F2.4
tp148
(dp149
g7
F0.12533068783068782
sg8
F0.5802286579867999
sg9
F0.01703327693175409
ss(F0.8
F1.6
tp150
(dp151
g7
F0.13754076347592556
sg8
F0.6607129178050711
sg9
F0.022307090011345298
sss(I500
I670
tp152
(dp153
(I0
F0.8
tp154
(dp155
g7
F0.15167577264943324
sg8
F0.5393157397833026
sg9
F0.028319654025901555
ss(F1.6
F2.4
tp156
(dp157
g7
F0.0953625081645983
sg8
F0.395906432748538
sg9
F0.014327042292326767
ss(F0.8
F1.6
tp158
(dp159
g7
F0.1311737361998838
sg8
F0.4732209043736101
sg9
F0.023017758172152472
sss(I400
I500
tp160
(dp161
(I0
F0.8
tp162
(dp163
g7
F0.1546691539558872
sg8
F0.5789701160780439
sg9
F0.02831815673289183
ss(F1.6
F2.4
tp164
(dp165
g7
F0.1053864168618267
sg8
F0.4016862390846131
sg9
F0.018126525549197713
ss(F0.8
F1.6
tp166
(dp167
g7
F0.1375919117647059
sg8
F0.5166191280051226
sg9
F0.024244889657276517
sss(I30
I40
tp168
(dp169
(I0
F0.8
tp170
(dp171
g7
F0.14502696555013392
sg8
F0.6348553810013214
sg9
F0.025199733826003216
ss(F1.6
F2.4
tp172
(dp173
g7
F0.10962396430847673
sg8
F0.5171728280179342
sg9
F0.0205944418612969
ss(F0.8
F1.6
tp174
(dp175
g7
F0.13465195891974135
sg8
F0.5963082848479881
sg9
F0.02290895723563289
sss(I260
I320
tp176
(dp177
(I0
F0.8
tp178
(dp179
g7
F0.159339180971856
sg8
F0.6560776878880414
sg9
F0.03179255918827509
ss(F1.6
F2.4
tp180
(dp181
g7
F0.11386258800679777
sg8
F0.468675111263266
sg9
F0.018756403183860036
ss(F0.8
F1.6
tp182
(dp183
g7
F0.14855102549198704
sg8
F0.5860007310323221
sg9
F0.025719864098267407
sss(I70
I80
tp184
(dp185
(I0
F0.8
tp186
(dp187
g7
F0.1356399793091557
sg8
F0.6852740974838945
sg9
F0.022353370769883644
ss(F1.6
F2.4
tp188
(dp189
g7
F0.11161971830985916
sg8
F0.5724907063197026
sg9
F0.01615392977497554
ss(F0.8
F1.6
tp190
(dp191
g7
F0.12660535255613556
sg8
F0.6528637495553183
sg9
F0.019506912148818247
sss(I320
I400
tp192
(dp193
(I0
F0.8
tp194
(dp195
g7
F0.15489205838281814
sg8
F0.6160527805430306
sg9
F0.030127414144495126
ss(F1.6
F2.4
tp196
(dp197
g7
F0.12182342153523709
sg8
F0.43980738362760835
sg9
F0.020627930103707913
ss(F0.8
F1.6
tp198
(dp199
g7
F0.14128471923639177
sg8
F0.5527932663280889
sg9
F0.025612472160356347
sss(I50
I60
tp200
(dp201
(I0
F0.8
tp202
(dp203
g7
F0.13849277552176786
sg8
F0.6718536678459754
sg9
F0.021536955457660302
ss(F1.6
F2.4
tp204
(dp205
g7
F0.11328811856317508
sg8
F0.563694431566476
sg9
F0.016533038429637822
ss(F0.8
F1.6
tp206
(dp207
g7
F0.13085874016771762
sg8
F0.6404881582124279
sg9
F0.01944544782152502
sss(I100
I120
tp208
(dp209
(I0
F0.8
tp210
(dp211
g7
F0.1431528533160159
sg8
F0.685213238046016
sg9
F0.026113573318878935
ss(F1.6
F2.4
tp212
(dp213
g7
F0.12076455256298871
sg8
F0.5692789968652038
sg9
F0.016950752213224608
ss(F0.8
F1.6
tp214
(dp215
g7
F0.14092917711692343
sg8
F0.6538925112179255
sg9
F0.02327841149133925
sss(I160
I210
tp216
(dp217
(I0
F0.8
tp218
(dp219
g7
F0.17012752683568305
sg8
F0.7014894497310715
sg9
F0.0331523676898962
ss(F1.6
F2.4
tp220
(dp221
g7
F0.12336424850717825
sg8
F0.5330678670360111
sg9
F0.01928940527008377
ss(F0.8
F1.6
tp222
(dp223
g7
F0.15897718404260203
sg8
F0.6444881035329595
sg9
F0.027140893165994058
sss(I120
I160
tp224
(dp225
(I0
F0.8
tp226
(dp227
g7
F0.15195246179966043
sg8
F0.6952374089553562
sg9
F0.030031224957860123
ss(F1.6
F2.4
tp228
(dp229
g7
F0.12956241177656785
sg8
F0.569951091866297
sg9
F0.019187964279009897
ss(F0.8
F1.6
tp230
(dp231
g7
F0.14546551377438166
sg8
F0.6568009899792514
sg9
F0.024839637248396374
sss(I60
I70
tp232
(dp233
(I0
F0.8
tp234
(dp235
g7
F0.13468595994547553
sg8
F0.6765785390307949
sg9
F0.02150762863103567
ss(F1.6
F2.4
tp236
(dp237
g7
F0.12117137307634843
sg8
F0.5703716350805305
sg9
F0.017262179327963666
ss(F0.8
F1.6
tp238
(dp239
g7
F0.13316802800466745
sg8
F0.6532971543232396
sg9
F0.019333098734231207
sss(I40
I50
tp240
(dp241
(I0
F0.8
tp242
(dp243
g7
F0.12773429236302095
sg8
F0.6518588992974239
sg9
F0.02069200576121733
ss(F1.6
F2.4
tp244
(dp245
g7
F0.11460066555740432
sg8
F0.5490342099138934
sg9
F0.018022234008257157
ss(F0.8
F1.6
tp246
(dp247
g7
F0.1272014575167007
sg8
F0.6217345207803223
sg9
F0.02030285200289461
ssssS'none'
p248
(dp249
(I670
I-1
tp250
(dp251
(I0
F0.8
tp252
(dp253
g7
F0.5
sg8
F0.5
sg9
F0.5
ss(F1.6
F2.4
tp254
(dp255
g7
F0.5
sg8
F0.5
sg9
F0.5
ss(F0.8
F1.6
tp256
(dp257
g7
F0.5
sg8
F0.5
sg9
F0.5
sss(I210
I260
tp258
(dp259
(I0
F0.8
tp260
(dp261
g7
F0.5
sg8
F0.5
sg9
F0.5
ss(F1.6
F2.4
tp262
(dp263
g7
F0.5
sg8
F0.5
sg9
F0.5
ss(F0.8
F1.6
tp264
(dp265
g7
F0.5
sg8
F0.5
sg9
F0.5
sss(I80
I100
tp266
(dp267
(I0
F0.8
tp268
(dp269
g7
F0.5
sg8
F0.5
sg9
F0.5
ss(F1.6
F2.4
tp270
(dp271
g7
F0.5
sg8
F0.5
sg9
F0.5
ss(F0.8
F1.6
tp272
(dp273
g7
F0.5
sg8
F0.5
sg9
F0.5
sss(I500
I670
tp274
(dp275
(I0
F0.8
tp276
(dp277
g7
F0.5
sg8
F0.5
sg9
F0.5
ss(F1.6
F2.4
tp278
(dp279
g7
F0.5
sg8
F0.5
sg9
F0.5
ss(F0.8
F1.6
tp280
(dp281
g7
F0.5
sg8
F0.5
sg9
F0.5
sss(I400
I500
tp282
(dp283
(I0
F0.8
tp284
(dp285
g7
F0.5
sg8
F0.5
sg9
F0.5
ss(F1.6
F2.4
tp286
(dp287
g7
F0.5
sg8
F0.5
sg9
F0.5
ss(F0.8
F1.6
tp288
(dp289
g7
F0.5
sg8
F0.5
sg9
F0.5
sss(I30
I40
tp290
(dp291
(I0
F0.8
tp292
(dp293
g7
F0.5
sg8
F0.5
sg9
F0.5
ss(F1.6
F2.4
tp294
(dp295
g7
F0.5
sg8
F0.5
sg9
F0.5
ss(F0.8
F1.6
tp296
(dp297
g7
F0.5
sg8
F0.5
sg9
F0.5
sss(I260
I320
tp298
(dp299
(I0
F0.8
tp300
(dp301
g7
F0.5
sg8
F0.5
sg9
F0.5
ss(F1.6
F2.4
tp302
(dp303
g7
F0.5
sg8
F0.5
sg9
F0.5
ss(F0.8
F1.6
tp304
(dp305
g7
F0.5
sg8
F0.5
sg9
F0.5
sss(I70
I80
tp306
(dp307
(I0
F0.8
tp308
(dp309
g7
F0.5
sg8
F0.5
sg9
F0.5
ss(F1.6
F2.4
tp310
(dp311
g7
F0.5
sg8
F0.5
sg9
F0.5
ss(F0.8
F1.6
tp312
(dp313
g7
F0.5
sg8
F0.5
sg9
F0.5
sss(I320
I400
tp314
(dp315
(I0
F0.8
tp316
(dp317
g7
F0.5
sg8
F0.5
sg9
F0.5
ss(F1.6
F2.4
tp318
(dp319
g7
F0.5
sg8
F0.5
sg9
F0.5
ss(F0.8
F1.6
tp320
(dp321
g7
F0.5
sg8
F0.5
sg9
F0.5
sss(I50
I60
tp322
(dp323
(I0
F0.8
tp324
(dp325
g7
F0.5
sg8
F0.5
sg9
F0.5
ss(F1.6
F2.4
tp326
(dp327
g7
F0.5
sg8
F0.5
sg9
F0.5
ss(F0.8
F1.6
tp328
(dp329
g7
F0.5
sg8
F0.5
sg9
F0.5
sss(I100
I120
tp330
(dp331
(I0
F0.8
tp332
(dp333
g7
F0.5
sg8
F0.5
sg9
F0.5
ss(F1.6
F2.4
tp334
(dp335
g7
F0.5
sg8
F0.5
sg9
F0.5
ss(F0.8
F1.6
tp336
(dp337
g7
F0.5
sg8
F0.5
sg9
F0.5
sss(I160
I210
tp338
(dp339
(I0
F0.8
tp340
(dp341
g7
F0.5
sg8
F0.5
sg9
F0.5
ss(F1.6
F2.4
tp342
(dp343
g7
F0.5
sg8
F0.5
sg9
F0.5
ss(F0.8
F1.6
tp344
(dp345
g7
F0.5
sg8
F0.5
sg9
F0.5
sss(I120
I160
tp346
(dp347
(I0
F0.8
tp348
(dp349
g7
F0.5
sg8
F0.5
sg9
F0.5
ss(F1.6
F2.4
tp350
(dp351
g7
F0.5
sg8
F0.5
sg9
F0.5
ss(F0.8
F1.6
tp352
(dp353
g7
F0.5
sg8
F0.5
sg9
F0.5
sss(I60
I70
tp354
(dp355
(I0
F0.8
tp356
(dp357
g7
F0.5
sg8
F0.5
sg9
F0.5
ss(F1.6
F2.4
tp358
(dp359
g7
F0.5
sg8
F0.5
sg9
F0.5
ss(F0.8
F1.6
tp360
(dp361
g7
F0.5
sg8
F0.5
sg9
F0.5
sss(I40
I50
tp362
(dp363
(I0
F0.8
tp364
(dp365
g7
F0.5
sg8
F0.5
sg9
F0.5
ss(F1.6
F2.4
tp366
(dp367
g7
F0.5
sg8
F0.5
sg9
F0.5
ss(F0.8
F1.6
tp368
(dp369
g7
F0.5
sg8
F0.5
sg9
F0.5
ssss.